; Function Attrs: nounwind uwtable
define noalias ptr @ff_all_channel_layouts() local_unnamed_addr #3 {
  %1 = tail call noalias ptr @av_mallocz(i64 noundef 32) #10
  %.not = icmp eq ptr %1, null
  br i1 %.not, label %4, label %2

2:                                                ; preds = %0
  %3 = getelementptr inbounds nuw i8, ptr %1, i64 12
  store i8 1, ptr %3, align 4, !tbaa !60
  br label %4

4:                                                ; preds = %0, %2
  ret ptr %1
}